target datalayout = "e-m:e-p270:32:32-p271:32:32-p272:64:64-i64:64-i128:128-f80:128-n8:16:32:64-S128"
target triple = "x86_64-pc-linux-gnu"

%struct._dcerpc_info = type { ptr, i32, i64, i8, i8, i8, i32, i32, i32, i32, i32, i32, i32, i32, ptr, ptr, ptr, ptr, %struct.anon }
%struct.anon = type { i8, ptr, ptr, ptr, i8 }

@ett_mapi_SRestriction_sub = internal global i32 0, align 4
@hf_mapi_SRestriction_sub_res = internal global i32 0, align 4
@hf_mapi_SRestriction_sub_rt = internal global i32 0, align 4

; Function Attrs: null_pointer_is_valid sspstrong uwtable
define internal i32 @mapi_dissect_element_SRestriction_sub_res(ptr noundef %0, i32 noundef %1, ptr noundef %2, ptr noundef %3, ptr noundef %4, ptr noundef %5, ptr noundef %6) #0 {
  %8 = alloca ptr, align 8
  %9 = alloca i32, align 4
  %10 = alloca ptr, align 8
  %11 = alloca ptr, align 8
  %12 = alloca ptr, align 8
  %13 = alloca ptr, align 8
  %14 = alloca ptr, align 8
  store ptr %0, ptr %8, align 8
  store i32 %1, ptr %9, align 4
  store ptr %2, ptr %10, align 8
  store ptr %3, ptr %11, align 8
  store ptr %4, ptr %12, align 8
  store ptr %5, ptr %13, align 8
  store ptr %6, ptr %14, align 8
  %15 = load ptr, ptr %8, align 8
  %16 = load i32, ptr %9, align 4
  %17 = load ptr, ptr %10, align 8
  %18 = load ptr, ptr %11, align 8
  %19 = load ptr, ptr %12, align 8
  %20 = load ptr, ptr %13, align 8
  %21 = load i32, ptr @hf_mapi_SRestriction_sub_res, align 4
  %22 = load ptr, ptr %14, align 8
  %23 = load i8, ptr %22, align 1
  %24 = zext i8 %23 to i32
  %25 = call i32 @mapi_dissect_SRestriction_CTR(ptr noundef %15, i32 noundef %16, ptr noundef %17, ptr noundef %18, ptr noundef %19, ptr noundef %20, i32 noundef %21, i32 noundef %24)
  store i32 %25, ptr %9, align 4
  %26 = load i32, ptr %9, align 4
  ret i32 %26
}

; Function Attrs: null_pointer_is_valid sspstrong uwtable
define internal i32 @mapi_dissect_element_SRestriction_sub_rt(ptr noundef %0, i32 noundef %1, ptr noundef %2, ptr noundef %3, ptr noundef %4, ptr noundef %5, ptr noundef %6) #0 {
  %8 = alloca ptr, align 8
  %9 = alloca i32, align 4
  %10 = alloca ptr, align 8
  %11 = alloca ptr, align 8
  %12 = alloca ptr, align 8
  %13 = alloca ptr, align 8
  %14 = alloca ptr, align 8
  store ptr %0, ptr %8, align 8
  store i32 %1, ptr %9, align 4
  store ptr %2, ptr %10, align 8
  store ptr %3, ptr %11, align 8
  store ptr %4, ptr %12, align 8
  store ptr %5, ptr %13, align 8
  store ptr %6, ptr %14, align 8
  %15 = load ptr, ptr %8, align 8
  %16 = load i32, ptr %9, align 4
  %17 = load ptr, ptr %10, align 8
  %18 = load ptr, ptr %11, align 8
  %19 = load ptr, ptr %12, align 8
  %20 = load ptr, ptr %13, align 8
  %21 = load i32, ptr @hf_mapi_SRestriction_sub_rt, align 4
  %22 = load ptr, ptr %14, align 8
  %23 = load i8, ptr %22, align 1
  %24 = zext i8 %23 to i32
  %25 = call i32 @PIDL_dissect_uint8(ptr noundef %15, i32 noundef %16, ptr noundef %17, ptr noundef %18, ptr noundef %19, ptr noundef %20, i32 noundef %21, i32 noundef %24)
  store i32 %25, ptr %9, align 4
  %26 = load i32, ptr %9, align 4
  ret i32 %26
}

; Function Attrs: null_pointer_is_valid sspstrong uwtable
define hidden i32 @mapi_dissect_struct_SRestriction_sub(ptr noundef %0, i32 noundef %1, ptr noundef %2, ptr noundef %3, ptr noundef %4, ptr noundef %5, i32 noundef %6, i32 noundef %7) #0 {
  %9 = alloca ptr, align 8
  %10 = alloca i32, align 4
  %11 = alloca ptr, align 8
  %12 = alloca ptr, align 8
  %13 = alloca ptr, align 8
  %14 = alloca ptr, align 8
  %15 = alloca i32, align 4
  %16 = alloca i32, align 4
  %17 = alloca i8, align 1
  %18 = alloca ptr, align 8
  %19 = alloca ptr, align 8
  %20 = alloca i8, align 1
  %21 = alloca i32, align 4
  store ptr %0, ptr %9, align 8
  store i32 %1, ptr %10, align 4
  store ptr %2, ptr %11, align 8
  store ptr %3, ptr %12, align 8
  store ptr %4, ptr %13, align 8
  store ptr %5, ptr %14, align 8
  store i32 %6, ptr %15, align 4
  store i32 %7, ptr %16, align 4
  call void @llvm.lifetime.start.p0(i64 1, ptr %17) #5
  store i8 0, ptr %17, align 1
  call void @llvm.lifetime.start.p0(i64 8, ptr %18) #5
  store ptr null, ptr %18, align 8
  call void @llvm.lifetime.start.p0(i64 8, ptr %19) #5
  store ptr null, ptr %19, align 8
  call void @llvm.lifetime.start.p0(i64 1, ptr %20) #5
  %22 = load ptr, ptr %13, align 8
  %23 = getelementptr inbounds nuw %struct._dcerpc_info, ptr %22, i32 0, i32 5
  %24 = load i8, ptr %23, align 2, !range !6, !noundef !7
  %25 = trunc i8 %24 to i1
  %26 = zext i1 %25 to i8
  store i8 %26, ptr %20, align 1
  call void @llvm.lifetime.start.p0(i64 4, ptr %21) #5
  %27 = load ptr, ptr %13, align 8
  %28 = getelementptr inbounds nuw %struct._dcerpc_info, ptr %27, i32 0, i32 5
  store i8 1, ptr %28, align 2
  %29 = load i32, ptr %10, align 4
  store i32 %29, ptr %21, align 4
  %30 = load ptr, ptr %12, align 8
  %31 = icmp ne ptr %30, null
  br i1 %31, label %32, label %41

32:                                               ; preds = %8
  %33 = load ptr, ptr %12, align 8
  %34 = load i32, ptr %15, align 4
  %35 = load ptr, ptr %9, align 8
  %36 = load i32, ptr %10, align 4
  %37 = call ptr @proto_tree_add_item(ptr noundef %33, i32 noundef %34, ptr noundef %35, i32 noundef %36, i32 noundef -1, i32 noundef 0)
  store ptr %37, ptr %18, align 8
  %38 = load ptr, ptr %18, align 8
  %39 = load i32, ptr @ett_mapi_SRestriction_sub, align 4
  %40 = call ptr @proto_item_add_subtree(ptr noundef %38, i32 noundef %39)
  store ptr %40, ptr %19, align 8
  br label %41

41:                                               ; preds = %32, %8
  %42 = load ptr, ptr %9, align 8
  %43 = load i32, ptr %10, align 4
  %44 = load ptr, ptr %11, align 8
  %45 = load ptr, ptr %19, align 8
  %46 = load ptr, ptr %13, align 8
  %47 = load ptr, ptr %14, align 8
  %48 = call i32 @mapi_dissect_element_SRestriction_sub_rt(ptr noundef %42, i32 noundef %43, ptr noundef %44, ptr noundef %45, ptr noundef %46, ptr noundef %47, ptr noundef %17)
  store i32 %48, ptr %10, align 4
  %49 = load ptr, ptr %9, align 8
  %50 = load i32, ptr %10, align 4
  %51 = load ptr, ptr %11, align 8
  %52 = load ptr, ptr %19, align 8
  %53 = load ptr, ptr %13, align 8
  %54 = load ptr, ptr %14, align 8
  %55 = call i32 @mapi_dissect_element_SRestriction_sub_res(ptr noundef %49, i32 noundef %50, ptr noundef %51, ptr noundef %52, ptr noundef %53, ptr noundef %54, ptr noundef %17)
  store i32 %55, ptr %10, align 4
  %56 = load ptr, ptr %18, align 8
  %57 = load i32, ptr %10, align 4
  %58 = load i32, ptr %21, align 4
  %59 = sub i32 %57, %58
  call void @proto_item_set_len(ptr noundef %56, i32 noundef %59)
  %60 = load i8, ptr %20, align 1, !range !6, !noundef !7
  %61 = trunc i8 %60 to i1
  %62 = load ptr, ptr %13, align 8
  %63 = getelementptr inbounds nuw %struct._dcerpc_info, ptr %62, i32 0, i32 5
  %64 = zext i1 %61 to i8
  store i8 %64, ptr %63, align 2
  %65 = load i32, ptr %10, align 4
  call void @llvm.lifetime.end.p0(i64 4, ptr %21) #5
  call void @llvm.lifetime.end.p0(i64 1, ptr %20) #5
  call void @llvm.lifetime.end.p0(i64 8, ptr %19) #5
  call void @llvm.lifetime.end.p0(i64 8, ptr %18) #5
  call void @llvm.lifetime.end.p0(i64 1, ptr %17) #5
  ret i32 %65
}